target datalayout = "e-m:e-p270:32:32-p271:32:32-p272:64:64-i64:64-i128:128-f80:128-n8:16:32:64-S128"
target triple = "x86_64-pc-linux-gnu"

%struct.pmix_ptl_base_t = type { i8, i8, %struct.pmix_list_t, %struct.pmix_list_t, %struct.pmix_listener_t, ptr, i32, i64, ptr, ptr, ptr, ptr, ptr, ptr, ptr, ptr, ptr, ptr, ptr, ptr, i8, i8, i8, i8, i8, i8, i8, i8, i8, i8, i8, i8, i8, i8, ptr, ptr, i32, i8, i32, i8, i32, i32, i32, i32 }
%struct.pmix_list_t = type { %struct.pmix_object_t, %struct.pmix_list_item_t, i64 }
%struct.pmix_object_t = type { %union.pthread_mutex_t, ptr, i32, %struct.pmix_tma }
%union.pthread_mutex_t = type { %struct.__pthread_mutex_s }
%struct.__pthread_mutex_s = type { i32, i32, i32, i32, i32, i16, i16, %struct.__pthread_internal_list }
%struct.__pthread_internal_list = type { ptr, ptr }
%struct.pmix_tma = type { ptr, ptr, ptr, ptr, ptr, ptr, ptr, ptr }
%struct.pmix_list_item_t = type { %struct.pmix_object_t, ptr, ptr, i32 }
%struct.pmix_listener_t = type { %struct.pmix_list_item_t, %struct.event, i8, i16, i32, ptr, ptr, i32, i8, i32, i8, i32, ptr }
%struct.event = type { %struct.event_callback, %union.anon.0, i32, ptr, %union.anon.2, i16, i16, %struct.timeval }
%struct.event_callback = type { %struct.anon, i16, i8, i8, %union.anon, ptr }
%struct.anon = type { ptr, ptr }
%union.anon = type { ptr }
%union.anon.0 = type { %struct.anon.1 }
%struct.anon.1 = type { ptr, ptr }
%union.anon.2 = type { %struct.anon.3 }
%struct.anon.3 = type { %struct.anon.4, %struct.timeval }
%struct.anon.4 = type { ptr, ptr }
%struct.timeval = type { i64, i64 }
%struct.pmix_mca_base_framework_t = type { ptr, ptr, ptr, ptr, ptr, ptr, i32, i32, ptr, ptr, i32, i32, %struct.pmix_list_t, %struct.pmix_list_t }
%struct.pmix_output_desc_t = type { i8, i8, i32, i8, i32, ptr, ptr, i32, ptr, i32, i8, i8, i8, i8, ptr, i32, i32 }

@pmix_ptl_base = external global %struct.pmix_ptl_base_t, align 8
@pmix_ptl_base_framework = external global %struct.pmix_mca_base_framework_t, align 8
@pmix_output_info = external global [0 x %struct.pmix_output_desc_t], align 8
@.str = private unnamed_addr constant [24 x i8] c"listen_thread: shutdown\00", align 1

; Function Attrs: nounwind uwtable
define void @pmix_ptl_base_stop_listening() #0 {
  %1 = alloca ptr, align 8
  %2 = alloca i32, align 4
  call void @llvm.lifetime.start.p0(i64 8, ptr %1) #12
  store ptr getelementptr inbounds nuw (%struct.pmix_ptl_base_t, ptr @pmix_ptl_base, i32 0, i32 4), ptr %1, align 8, !tbaa !54
  %3 = load i32, ptr getelementptr inbounds nuw (%struct.pmix_mca_base_framework_t, ptr @pmix_ptl_base_framework, i32 0, i32 11), align 4, !tbaa !57
  %4 = icmp sge i32 %3, 0
  br i1 %4, label %5, label %17

5:                                                ; preds = %0
  %6 = load i32, ptr getelementptr inbounds nuw (%struct.pmix_mca_base_framework_t, ptr @pmix_ptl_base_framework, i32 0, i32 11), align 4, !tbaa !57
  %7 = icmp slt i32 %6, 64
  br i1 %7, label %8, label %17

8:                                                ; preds = %5
  %9 = load i32, ptr getelementptr inbounds nuw (%struct.pmix_mca_base_framework_t, ptr @pmix_ptl_base_framework, i32 0, i32 11), align 4, !tbaa !57
  %10 = sext i32 %9 to i64
  %11 = getelementptr inbounds [0 x %struct.pmix_output_desc_t], ptr @pmix_output_info, i64 0, i64 %10
  %12 = getelementptr inbounds nuw %struct.pmix_output_desc_t, ptr %11, i32 0, i32 2
  %13 = load i32, ptr %12, align 4, !tbaa !60
  %14 = icmp sge i32 %13, 8
  br i1 %14, label %15, label %17

15:                                               ; preds = %8
  %16 = load i32, ptr getelementptr inbounds nuw (%struct.pmix_mca_base_framework_t, ptr @pmix_ptl_base_framework, i32 0, i32 11), align 4, !tbaa !57
  call void (i32, ptr, ...) @pmix_output(i32 noundef %16, ptr noundef @.str)
  br label %17

17:                                               ; preds = %15, %8, %5, %0
  %18 = load ptr, ptr %1, align 8, !tbaa !54
  %19 = getelementptr inbounds nuw %struct.pmix_listener_t, ptr %18, i32 0, i32 2
  %20 = load volatile i8, ptr %19, align 8, !tbaa !70, !range !12, !noundef !13
  %21 = trunc i8 %20 to i1
  br i1 %21, label %23, label %22

22:                                               ; preds = %17
  store i32 1, ptr %2, align 4
  br label %50

23:                                               ; preds = %17
  %24 = load ptr, ptr %1, align 8, !tbaa !54
  %25 = getelementptr inbounds nuw %struct.pmix_listener_t, ptr %24, i32 0, i32 2
  store volatile i8 0, ptr %25, align 8, !tbaa !70
  %26 = load ptr, ptr %1, align 8, !tbaa !54
  %27 = getelementptr inbounds nuw %struct.pmix_listener_t, ptr %26, i32 0, i32 1
  %28 = call i32 @event_del(ptr noundef %27)
  br label %29

29:                                               ; preds = %23
  %30 = load ptr, ptr %1, align 8, !tbaa !54
  %31 = getelementptr inbounds nuw %struct.pmix_listener_t, ptr %30, i32 0, i32 4
  %32 = load i32, ptr %31, align 4, !tbaa !71
  %33 = icmp sle i32 0, %32
  br i1 %33, label %34, label %45

34:                                               ; preds = %29
  %35 = load ptr, ptr %1, align 8, !tbaa !54
  %36 = getelementptr inbounds nuw %struct.pmix_listener_t, ptr %35, i32 0, i32 4
  %37 = load i32, ptr %36, align 4, !tbaa !71
  %38 = call i32 @shutdown(i32 noundef %37, i32 noundef 2) #12
  %39 = load ptr, ptr %1, align 8, !tbaa !54
  %40 = getelementptr inbounds nuw %struct.pmix_listener_t, ptr %39, i32 0, i32 4
  %41 = load i32, ptr %40, align 4, !tbaa !71
  %42 = call i32 @close(i32 noundef %41)
  %43 = load ptr, ptr %1, align 8, !tbaa !54
  %44 = getelementptr inbounds nuw %struct.pmix_listener_t, ptr %43, i32 0, i32 4
  store i32 -1, ptr %44, align 4, !tbaa !71
  br label %45

45:                                               ; preds = %34, %29
  br label %46

46:                                               ; preds = %45
  br label %47

47:                                               ; preds = %46
  %48 = load ptr, ptr %1, align 8, !tbaa !54
  %49 = getelementptr inbounds nuw %struct.pmix_listener_t, ptr %48, i32 0, i32 4
  store i32 -1, ptr %49, align 4, !tbaa !71
  store i32 0, ptr %2, align 4
  br label %50

50:                                               ; preds = %47, %22
  call void @llvm.lifetime.end.p0(i64 8, ptr %1) #12
  %51 = load i32, ptr %2, align 4
  switch i32 %51, label %53 [
    i32 0, label %52
    i32 1, label %52
  ]

52:                                               ; preds = %50, %50
  ret void

53:                                               ; preds = %50
  unreachable
}