; Function Attrs: nounwind uwtable
define void @pmix_ptl_base_stop_listening() local_unnamed_addr #0 {
  %1 = load i32, ptr getelementptr inbounds nuw (i8, ptr @pmix_ptl_base_framework, i64 76), align 4, !tbaa !46
  %or.cond = icmp ult i32 %1, 64
  br i1 %or.cond, label %2, label %8

2:                                                ; preds = %0
  %3 = zext nneg i32 %1 to i64
  %4 = getelementptr inbounds nuw [0 x %struct.pmix_output_desc_t], ptr @pmix_output_info, i64 0, i64 %3, i32 2
  %5 = load i32, ptr %4, align 4, !tbaa !49
  %6 = icmp sgt i32 %5, 7
  br i1 %6, label %7, label %8

7:                                                ; preds = %2
  tail call void (i32, ptr, ...) @pmix_output(i32 noundef %1, ptr noundef nonnull @.str) #16
  br label %8

8:                                                ; preds = %7, %2, %0
  %9 = load volatile i8, ptr getelementptr inbounds nuw (i8, ptr @pmix_ptl_base, i64 824), align 8, !tbaa !69, !range !70, !noundef !71
  %10 = trunc nuw i8 %9 to i1
  br i1 %10, label %11, label %20

11:                                               ; preds = %8
  store volatile i8 0, ptr getelementptr inbounds nuw (i8, ptr @pmix_ptl_base, i64 824), align 8, !tbaa !69
  %12 = tail call i32 @event_del(ptr noundef nonnull getelementptr inbounds nuw (i8, ptr @pmix_ptl_base, i64 696)) #16
  %13 = load i32, ptr getelementptr inbounds nuw (i8, ptr @pmix_ptl_base, i64 828), align 4, !tbaa !72
  %14 = icmp sgt i32 %13, -1
  br i1 %14, label %15, label %19

15:                                               ; preds = %11
  %16 = tail call i32 @shutdown(i32 noundef %13, i32 noundef 2) #16
  %17 = load i32, ptr getelementptr inbounds nuw (i8, ptr @pmix_ptl_base, i64 828), align 4, !tbaa !72
  %18 = tail call i32 @close(i32 noundef %17) #16
  br label %19

19:                                               ; preds = %15, %11
  store i32 -1, ptr getelementptr inbounds nuw (i8, ptr @pmix_ptl_base, i64 828), align 4, !tbaa !72
  br label %20

20:                                               ; preds = %8, %19
  ret void
}